
/home/wuhaijun/am-kernels/tests/cpu-tests/build/sum-riscv32-npc.elf:     file format elf32-littleriscv


Disassembly of section .text:

00000000 <_start>:
   0:	00000413          	li	s0,0
   4:	00009117          	auipc	sp,0x9
   8:	ffc10113          	addi	sp,sp,-4 # 9000 <_end>
   c:	074000ef          	jal	ra,80 <_trm_init>

00000010 <check>:
  10:	00050463          	beqz	a0,18 <check+0x8>
  14:	00008067          	ret
  18:	ff010113          	addi	sp,sp,-16
  1c:	00100513          	li	a0,1
  20:	00112623          	sw	ra,12(sp)
  24:	054000ef          	jal	ra,78 <halt>

00000028 <main>:
  28:	fe010113          	addi	sp,sp,-32
  2c:	00112e23          	sw	ra,28(sp)
  30:	00012623          	sw	zero,12(sp)
  34:	00100793          	li	a5,1
  38:	06500693          	li	a3,101
  3c:	00c12703          	lw	a4,12(sp)
  40:	00f70733          	add	a4,a4,a5
  44:	00e12623          	sw	a4,12(sp)
  48:	00178793          	addi	a5,a5,1
  4c:	fed798e3          	bne	a5,a3,3c <main+0x14>
  50:	00c12503          	lw	a0,12(sp)
  54:	fffff7b7          	lui	a5,0xfffff
  58:	c4678793          	addi	a5,a5,-954 # ffffec46 <_end+0xffff5c46>
  5c:	00f50533          	add	a0,a0,a5
  60:	00153513          	seqz	a0,a0
  64:	fadff0ef          	jal	ra,10 <check>
  68:	01c12083          	lw	ra,28(sp)
  6c:	00000513          	li	a0,0
  70:	02010113          	addi	sp,sp,32
  74:	00008067          	ret

00000078 <halt>:
  78:	08a02e23          	sw	a0,156(zero) # 9c <exit_status>
  7c:	0000006f          	j	7c <halt+0x4>

00000080 <_trm_init>:
  80:	ff010113          	addi	sp,sp,-16
  84:	09800513          	li	a0,152
  88:	00112623          	sw	ra,12(sp)
  8c:	f9dff0ef          	jal	ra,28 <main>
  90:	08a02e23          	sw	a0,156(zero) # 9c <exit_status>
  94:	0000006f          	j	94 <_trm_init+0x14>

Disassembly of section .srodata.mainargs:

00000098 <mainargs>:
	...

Disassembly of section .sdata.exit_status:

0000009c <exit_status>:
  9c:	deadbeef          	jal	t4,fffdb686 <_end+0xfffd2686>

Disassembly of section .comment:

00000000 <.comment>:
   0:	3a434347          	fmsub.d	ft6,ft6,ft4,ft7,rmm
   4:	2820                	.2byte	0x2820
   6:	6255                	.2byte	0x6255
   8:	6e75                	.2byte	0x6e75
   a:	7574                	.2byte	0x7574
   c:	3120                	.2byte	0x3120
   e:	2e31                	.2byte	0x2e31
  10:	2d302e33          	.4byte	0x2d302e33
  14:	7531                	.2byte	0x7531
  16:	7562                	.2byte	0x7562
  18:	746e                	.2byte	0x746e
  1a:	3175                	.2byte	0x3175
  1c:	327e                	.2byte	0x327e
  1e:	2e32                	.2byte	0x2e32
  20:	3430                	.2byte	0x3430
  22:	2029                	.2byte	0x2029
  24:	3131                	.2byte	0x3131
  26:	332e                	.2byte	0x332e
  28:	302e                	.2byte	0x302e
  2a:	4700                	.2byte	0x4700
  2c:	203a4343          	fmadd.s	ft6,fs4,ft3,ft4,rmm
  30:	5528                	.2byte	0x5528
  32:	7562                	.2byte	0x7562
  34:	746e                	.2byte	0x746e
  36:	2075                	.2byte	0x2075
  38:	3131                	.2byte	0x3131
  3a:	342e                	.2byte	0x342e
  3c:	302e                	.2byte	0x302e
  3e:	312d                	.2byte	0x312d
  40:	6275                	.2byte	0x6275
  42:	6e75                	.2byte	0x6e75
  44:	7574                	.2byte	0x7574
  46:	7e31                	.2byte	0x7e31
  48:	3232                	.2byte	0x3232
  4a:	302e                	.2byte	0x302e
  4c:	2934                	.2byte	0x2934
  4e:	3120                	.2byte	0x3120
  50:	2e31                	.2byte	0x2e31
  52:	2e34                	.2byte	0x2e34
  54:	0030                	.2byte	0x30

Disassembly of section .riscv.attributes:

00000000 <.riscv.attributes>:
   0:	2d41                	.2byte	0x2d41
   2:	0000                	.2byte	0x0
   4:	7200                	.2byte	0x7200
   6:	7369                	.2byte	0x7369
   8:	01007663          	bgeu	zero,a6,14 <check+0x4>
   c:	00000023          	sb	zero,0(zero) # 0 <_start>
  10:	7205                	.2byte	0x7205
  12:	3376                	.2byte	0x3376
  14:	6932                	.2byte	0x6932
  16:	7032                	.2byte	0x7032
  18:	5f30                	.2byte	0x5f30
  1a:	326d                	.2byte	0x326d
  1c:	3070                	.2byte	0x3070
  1e:	615f 7032 5f30      	.byte	0x5f, 0x61, 0x32, 0x70, 0x30, 0x5f
  24:	3266                	.2byte	0x3266
  26:	3070                	.2byte	0x3070
  28:	645f 7032 0030      	.byte	0x5f, 0x64, 0x32, 0x70, 0x30, 0x00
