
rv32ui-p-lw:     file format elf32-littleriscv


Disassembly of section .text.init:

80000000 <_start>:
80000000:	00000093          	li	ra,0
80000004:	00000113          	li	sp,0
80000008:	00000193          	li	gp,0
8000000c:	00000213          	li	tp,0
80000010:	00000293          	li	t0,0
80000014:	00000313          	li	t1,0
80000018:	00000393          	li	t2,0
8000001c:	00000413          	li	s0,0
80000020:	00000493          	li	s1,0
80000024:	00000513          	li	a0,0
80000028:	00000593          	li	a1,0
8000002c:	00000613          	li	a2,0
80000030:	00000693          	li	a3,0
80000034:	00000713          	li	a4,0
80000038:	00000793          	li	a5,0
8000003c:	00000813          	li	a6,0
80000040:	00000893          	li	a7,0
80000044:	00000913          	li	s2,0
80000048:	00000993          	li	s3,0
8000004c:	00000a13          	li	s4,0
80000050:	00000a93          	li	s5,0
80000054:	00000b13          	li	s6,0
80000058:	00000b93          	li	s7,0
8000005c:	00000c13          	li	s8,0
80000060:	00000c93          	li	s9,0
80000064:	00000d13          	li	s10,0
80000068:	00000d93          	li	s11,0
8000006c:	00000e13          	li	t3,0
80000070:	00000e93          	li	t4,0
80000074:	00000f13          	li	t5,0
80000078:	00000f93          	li	t6,0

8000007c <test_2>:
8000007c:	00002097          	auipc	ra,0x2
80000080:	f8408093          	addi	ra,ra,-124 # 80002000 <begin_signature>
80000084:	0000a703          	lw	a4,0(ra)
80000088:	00ff03b7          	lui	t2,0xff0
8000008c:	0ff38393          	addi	t2,t2,255 # ff00ff <_start-0x7f00ff01>
80000090:	00200193          	li	gp,2
80000094:	26771a63          	bne	a4,t2,80000308 <fail>

80000098 <test_3>:
80000098:	00002097          	auipc	ra,0x2
8000009c:	f6808093          	addi	ra,ra,-152 # 80002000 <begin_signature>
800000a0:	0040a703          	lw	a4,4(ra)
800000a4:	ff0103b7          	lui	t2,0xff010
800000a8:	f0038393          	addi	t2,t2,-256 # ff00ff00 <_end+0x7f00def0>
800000ac:	00300193          	li	gp,3
800000b0:	24771c63          	bne	a4,t2,80000308 <fail>

800000b4 <test_4>:
800000b4:	00002097          	auipc	ra,0x2
800000b8:	f4c08093          	addi	ra,ra,-180 # 80002000 <begin_signature>
800000bc:	0080a703          	lw	a4,8(ra)
800000c0:	0ff013b7          	lui	t2,0xff01
800000c4:	ff038393          	addi	t2,t2,-16 # ff00ff0 <_start-0x700ff010>
800000c8:	00400193          	li	gp,4
800000cc:	22771e63          	bne	a4,t2,80000308 <fail>

800000d0 <test_5>:
800000d0:	00002097          	auipc	ra,0x2
800000d4:	f3008093          	addi	ra,ra,-208 # 80002000 <begin_signature>
800000d8:	00c0a703          	lw	a4,12(ra)
800000dc:	f00ff3b7          	lui	t2,0xf00ff
800000e0:	00f38393          	addi	t2,t2,15 # f00ff00f <_end+0x700fcfff>
800000e4:	00500193          	li	gp,5
800000e8:	22771063          	bne	a4,t2,80000308 <fail>

800000ec <test_6>:
800000ec:	00002097          	auipc	ra,0x2
800000f0:	f2008093          	addi	ra,ra,-224 # 8000200c <tdat4>
800000f4:	ff40a703          	lw	a4,-12(ra)
800000f8:	00ff03b7          	lui	t2,0xff0
800000fc:	0ff38393          	addi	t2,t2,255 # ff00ff <_start-0x7f00ff01>
80000100:	00600193          	li	gp,6
80000104:	20771263          	bne	a4,t2,80000308 <fail>

80000108 <test_7>:
80000108:	00002097          	auipc	ra,0x2
8000010c:	f0408093          	addi	ra,ra,-252 # 8000200c <tdat4>
80000110:	ff80a703          	lw	a4,-8(ra)
80000114:	ff0103b7          	lui	t2,0xff010
80000118:	f0038393          	addi	t2,t2,-256 # ff00ff00 <_end+0x7f00def0>
8000011c:	00700193          	li	gp,7
80000120:	1e771463          	bne	a4,t2,80000308 <fail>

80000124 <test_8>:
80000124:	00002097          	auipc	ra,0x2
80000128:	ee808093          	addi	ra,ra,-280 # 8000200c <tdat4>
8000012c:	ffc0a703          	lw	a4,-4(ra)
80000130:	0ff013b7          	lui	t2,0xff01
80000134:	ff038393          	addi	t2,t2,-16 # ff00ff0 <_start-0x700ff010>
80000138:	00800193          	li	gp,8
8000013c:	1c771663          	bne	a4,t2,80000308 <fail>

80000140 <test_9>:
80000140:	00002097          	auipc	ra,0x2
80000144:	ecc08093          	addi	ra,ra,-308 # 8000200c <tdat4>
80000148:	0000a703          	lw	a4,0(ra)
8000014c:	f00ff3b7          	lui	t2,0xf00ff
80000150:	00f38393          	addi	t2,t2,15 # f00ff00f <_end+0x700fcfff>
80000154:	00900193          	li	gp,9
80000158:	1a771863          	bne	a4,t2,80000308 <fail>

8000015c <test_10>:
8000015c:	00002097          	auipc	ra,0x2
80000160:	ea408093          	addi	ra,ra,-348 # 80002000 <begin_signature>
80000164:	fe008093          	addi	ra,ra,-32
80000168:	0200a283          	lw	t0,32(ra)
8000016c:	00ff03b7          	lui	t2,0xff0
80000170:	0ff38393          	addi	t2,t2,255 # ff00ff <_start-0x7f00ff01>
80000174:	00a00193          	li	gp,10
80000178:	18729863          	bne	t0,t2,80000308 <fail>

8000017c <test_11>:
8000017c:	00002097          	auipc	ra,0x2
80000180:	e8408093          	addi	ra,ra,-380 # 80002000 <begin_signature>
80000184:	ffd08093          	addi	ra,ra,-3
80000188:	0070a283          	lw	t0,7(ra)
8000018c:	ff0103b7          	lui	t2,0xff010
80000190:	f0038393          	addi	t2,t2,-256 # ff00ff00 <_end+0x7f00def0>
80000194:	00b00193          	li	gp,11
80000198:	16729863          	bne	t0,t2,80000308 <fail>

8000019c <test_12>:
8000019c:	00c00193          	li	gp,12
800001a0:	00000213          	li	tp,0
800001a4:	00002097          	auipc	ra,0x2
800001a8:	e6008093          	addi	ra,ra,-416 # 80002004 <tdat2>
800001ac:	0040a703          	lw	a4,4(ra)
800001b0:	00070313          	mv	t1,a4
800001b4:	0ff013b7          	lui	t2,0xff01
800001b8:	ff038393          	addi	t2,t2,-16 # ff00ff0 <_start-0x700ff010>
800001bc:	14731663          	bne	t1,t2,80000308 <fail>
800001c0:	00120213          	addi	tp,tp,1 # 1 <_start-0x7fffffff>
800001c4:	00200293          	li	t0,2
800001c8:	fc521ee3          	bne	tp,t0,800001a4 <test_12+0x8>

800001cc <test_13>:
800001cc:	00d00193          	li	gp,13
800001d0:	00000213          	li	tp,0
800001d4:	00002097          	auipc	ra,0x2
800001d8:	e3408093          	addi	ra,ra,-460 # 80002008 <tdat3>
800001dc:	0040a703          	lw	a4,4(ra)
800001e0:	00000013          	nop
800001e4:	00070313          	mv	t1,a4
800001e8:	f00ff3b7          	lui	t2,0xf00ff
800001ec:	00f38393          	addi	t2,t2,15 # f00ff00f <_end+0x700fcfff>
800001f0:	10731c63          	bne	t1,t2,80000308 <fail>
800001f4:	00120213          	addi	tp,tp,1 # 1 <_start-0x7fffffff>
800001f8:	00200293          	li	t0,2
800001fc:	fc521ce3          	bne	tp,t0,800001d4 <test_13+0x8>

80000200 <test_14>:
80000200:	00e00193          	li	gp,14
80000204:	00000213          	li	tp,0
80000208:	00002097          	auipc	ra,0x2
8000020c:	df808093          	addi	ra,ra,-520 # 80002000 <begin_signature>
80000210:	0040a703          	lw	a4,4(ra)
80000214:	00000013          	nop
80000218:	00000013          	nop
8000021c:	00070313          	mv	t1,a4
80000220:	ff0103b7          	lui	t2,0xff010
80000224:	f0038393          	addi	t2,t2,-256 # ff00ff00 <_end+0x7f00def0>
80000228:	0e731063          	bne	t1,t2,80000308 <fail>
8000022c:	00120213          	addi	tp,tp,1 # 1 <_start-0x7fffffff>
80000230:	00200293          	li	t0,2
80000234:	fc521ae3          	bne	tp,t0,80000208 <test_14+0x8>

80000238 <test_15>:
80000238:	00f00193          	li	gp,15
8000023c:	00000213          	li	tp,0
80000240:	00002097          	auipc	ra,0x2
80000244:	dc408093          	addi	ra,ra,-572 # 80002004 <tdat2>
80000248:	0040a703          	lw	a4,4(ra)
8000024c:	0ff013b7          	lui	t2,0xff01
80000250:	ff038393          	addi	t2,t2,-16 # ff00ff0 <_start-0x700ff010>
80000254:	0a771a63          	bne	a4,t2,80000308 <fail>
80000258:	00120213          	addi	tp,tp,1 # 1 <_start-0x7fffffff>
8000025c:	00200293          	li	t0,2
80000260:	fe5210e3          	bne	tp,t0,80000240 <test_15+0x8>

80000264 <test_16>:
80000264:	01000193          	li	gp,16
80000268:	00000213          	li	tp,0
8000026c:	00002097          	auipc	ra,0x2
80000270:	d9c08093          	addi	ra,ra,-612 # 80002008 <tdat3>
80000274:	00000013          	nop
80000278:	0040a703          	lw	a4,4(ra)
8000027c:	f00ff3b7          	lui	t2,0xf00ff
80000280:	00f38393          	addi	t2,t2,15 # f00ff00f <_end+0x700fcfff>
80000284:	08771263          	bne	a4,t2,80000308 <fail>
80000288:	00120213          	addi	tp,tp,1 # 1 <_start-0x7fffffff>
8000028c:	00200293          	li	t0,2
80000290:	fc521ee3          	bne	tp,t0,8000026c <test_16+0x8>

80000294 <test_17>:
80000294:	01100193          	li	gp,17
80000298:	00000213          	li	tp,0
8000029c:	00002097          	auipc	ra,0x2
800002a0:	d6408093          	addi	ra,ra,-668 # 80002000 <begin_signature>
800002a4:	00000013          	nop
800002a8:	00000013          	nop
800002ac:	0040a703          	lw	a4,4(ra)
800002b0:	ff0103b7          	lui	t2,0xff010
800002b4:	f0038393          	addi	t2,t2,-256 # ff00ff00 <_end+0x7f00def0>
800002b8:	04771863          	bne	a4,t2,80000308 <fail>
800002bc:	00120213          	addi	tp,tp,1 # 1 <_start-0x7fffffff>
800002c0:	00200293          	li	t0,2
800002c4:	fc521ce3          	bne	tp,t0,8000029c <test_17+0x8>

800002c8 <test_18>:
800002c8:	00002297          	auipc	t0,0x2
800002cc:	d3828293          	addi	t0,t0,-712 # 80002000 <begin_signature>
800002d0:	0002a103          	lw	sp,0(t0)
800002d4:	00200113          	li	sp,2
800002d8:	00200393          	li	t2,2
800002dc:	01200193          	li	gp,18
800002e0:	02711463          	bne	sp,t2,80000308 <fail>

800002e4 <test_19>:
800002e4:	00002297          	auipc	t0,0x2
800002e8:	d1c28293          	addi	t0,t0,-740 # 80002000 <begin_signature>
800002ec:	0002a103          	lw	sp,0(t0)
800002f0:	00000013          	nop
800002f4:	00200113          	li	sp,2
800002f8:	00200393          	li	t2,2
800002fc:	01300193          	li	gp,19
80000300:	00711463          	bne	sp,t2,80000308 <fail>
80000304:	00301863          	bne	zero,gp,80000314 <pass>

80000308 <fail>:
80000308:	deade537          	lui	a0,0xdeade
8000030c:	ead50513          	addi	a0,a0,-339 # deaddead <_end+0x5eadbe9d>
80000310:	10cc                	addi	a1,sp,100
80000312:	dead                	beqz	a3,8000028c <test_16+0x28>

80000314 <pass>:
80000314:	00c10537          	lui	a0,0xc10
80000318:	fee50513          	addi	a0,a0,-18 # c0ffee <_start-0x7f3f0012>
8000031c:	10cc                	addi	a1,sp,100
8000031e:	dead                	beqz	a3,80000298 <test_17+0x4>
80000320:	c0001073          	unimp
80000324:	0000                	unimp
80000326:	0000                	unimp
80000328:	0000                	unimp
8000032a:	0000                	unimp
8000032c:	0000                	unimp
8000032e:	0000                	unimp
80000330:	0000                	unimp
80000332:	0000                	unimp
80000334:	0000                	unimp
80000336:	0000                	unimp
80000338:	0000                	unimp
8000033a:	0000                	unimp
8000033c:	0000                	unimp
8000033e:	0000                	unimp
80000340:	0000                	unimp
80000342:	0000                	unimp

Disassembly of section .data:

80002000 <begin_signature>:
80002000:	00ff                	0xff
80002002:	00ff                	0xff

80002004 <tdat2>:
80002004:	ff00                	fsw	fs0,56(a4)
80002006:	ff00                	fsw	fs0,56(a4)

80002008 <tdat3>:
80002008:	0ff0                	addi	a2,sp,988
8000200a:	0ff0                	addi	a2,sp,988

8000200c <tdat4>:
8000200c:	f00ff00f          	0xf00ff00f
